; Function Attrs: null_pointer_is_valid sspstrong uwtable
define hidden void @voip_calls_free_callsinfo(ptr noundef initializes((56, 64)) %0) local_unnamed_addr #0 {
  %2 = getelementptr inbounds nuw i8, ptr %0, i64 8
  %3 = load ptr, ptr %2, align 8
  tail call void @g_free(ptr noundef %3)
  %4 = getelementptr inbounds nuw i8, ptr %0, i64 16
  %5 = load ptr, ptr %4, align 8
  tail call void @g_free(ptr noundef %5)
  %6 = getelementptr inbounds nuw i8, ptr %0, i64 24
  %7 = load ptr, ptr %6, align 8
  tail call void @g_free(ptr noundef %7)
  %8 = getelementptr inbounds nuw i8, ptr %0, i64 48
  %9 = load i32, ptr %8, align 8
  %.not.i.i = icmp eq i32 %9, 0
  br i1 %.not.i.i, label %free_address.exit, label %10

10:                                               ; preds = %1
  %11 = getelementptr inbounds nuw i8, ptr %0, i64 52
  %12 = load i32, ptr %11, align 4
  %13 = icmp sgt i32 %12, 0
  br i1 %13, label %14, label %free_address.exit

14:                                               ; preds = %10
  %15 = getelementptr inbounds nuw i8, ptr %0, i64 64
  %16 = load ptr, ptr %15, align 8
  %.not6.i.i = icmp eq ptr %16, null
  br i1 %.not6.i.i, label %free_address.exit, label %17

17:                                               ; preds = %14
  tail call void @wmem_free(ptr noundef null, ptr noundef nonnull %16)
  br label %free_address.exit

free_address.exit:                                ; preds = %1, %10, %14, %17
  tail call void @llvm.memset.p0.i64(ptr noundef nonnull align 8 dereferenceable(24) %8, i8 0, i64 24, i1 false)
  %18 = getelementptr inbounds nuw i8, ptr %0, i64 80
  %19 = load ptr, ptr %18, align 8
  tail call void @g_free(ptr noundef %19)
  %20 = getelementptr inbounds nuw i8, ptr %0, i64 88
  %21 = load ptr, ptr %20, align 8
  tail call void @g_free(ptr noundef %21)
  %22 = getelementptr inbounds nuw i8, ptr %0, i64 40
  %23 = load ptr, ptr %22, align 8
  %.not = icmp eq ptr %23, null
  br i1 %.not, label %28, label %24

24:                                               ; preds = %free_address.exit
  %25 = getelementptr inbounds nuw i8, ptr %0, i64 32
  %26 = load ptr, ptr %25, align 8
  %.not12 = icmp eq ptr %26, null
  br i1 %.not12, label %28, label %27

27:                                               ; preds = %24
  tail call void %23(ptr noundef nonnull %26)
  br label %28

28:                                               ; preds = %27, %24, %free_address.exit
  tail call void @g_free(ptr noundef %0)
  ret void
}